; Function Attrs: nounwind uwtable
define internal range(i32 -2147483648, 1) i32 @tee_open(ptr noundef %0, ptr noundef %1, i32 noundef %2) #0 {
  %4 = alloca ptr, align 8
  %5 = alloca ptr, align 8
  %6 = alloca ptr, align 8
  %7 = alloca ptr, align 8
  store ptr %1, ptr %4, align 8, !tbaa !4
  %8 = getelementptr inbounds nuw i8, ptr %0, i64 16
  %9 = load ptr, ptr %8, align 8, !tbaa !9
  %10 = call i32 @av_strstart(ptr noundef %1, ptr noundef nonnull @.str.2, ptr noundef nonnull %4) #4
  %11 = load ptr, ptr %4, align 8, !tbaa !4
  %12 = load i8, ptr %11, align 1, !tbaa !16
  %.not61 = icmp eq i8 %12, 0
  br i1 %.not61, label %.._crit_edge_crit_edge, label %.lr.ph

.._crit_edge_crit_edge:                           ; preds = %3
  %.pre = load i32, ptr %9, align 8, !tbaa !17
  br label %._crit_edge

.lr.ph:                                           ; preds = %3
  %13 = getelementptr inbounds nuw i8, ptr %9, i64 8
  %14 = getelementptr inbounds nuw i8, ptr %0, i64 48
  %15 = getelementptr inbounds nuw i8, ptr %0, i64 72
  %16 = getelementptr inbounds nuw i8, ptr %0, i64 80
  br label %17

17:                                               ; preds = %.lr.ph, %50
  call void @llvm.lifetime.start.p0(i64 8, ptr nonnull %5) #4
  %18 = call ptr @av_get_token(ptr noundef nonnull %4, ptr noundef nonnull @.str.3) #4
  store ptr %18, ptr %5, align 8, !tbaa !4
  call void @llvm.lifetime.start.p0(i64 8, ptr nonnull %6) #4
  store ptr null, ptr %6, align 8, !tbaa !4
  call void @llvm.lifetime.start.p0(i64 8, ptr nonnull %7) #4
  store ptr null, ptr %7, align 8, !tbaa !20
  %.not53 = icmp eq ptr %18, null
  br i1 %.not53, label %79, label %19

19:                                               ; preds = %17
  %20 = load ptr, ptr %13, align 8, !tbaa !22
  %21 = load i32, ptr %9, align 8, !tbaa !17
  %22 = add nsw i32 %21, 1
  %23 = sext i32 %22 to i64
  %24 = call ptr @av_realloc_array(ptr noundef %20, i64 noundef %23, i64 noundef 8) #4
  %.not54 = icmp eq ptr %24, null
  br i1 %.not54, label %41, label %25

25:                                               ; preds = %19
  store ptr %24, ptr %13, align 8, !tbaa !22
  %26 = load i32, ptr %9, align 8, !tbaa !17
  %27 = sext i32 %26 to i64
  %28 = getelementptr inbounds %struct.ChildContext, ptr %24, i64 %27
  store i64 0, ptr %28, align 8
  %29 = load ptr, ptr %5, align 8, !tbaa !4
  %30 = call i32 @ff_tee_parse_slave_options(ptr noundef %0, ptr noundef %29, ptr noundef nonnull %7, ptr noundef nonnull %6) #4
  %31 = icmp slt i32 %30, 0
  br i1 %31, label %41, label %32

32:                                               ; preds = %25
  %33 = load ptr, ptr %13, align 8, !tbaa !22
  %34 = load i32, ptr %9, align 8, !tbaa !17
  %35 = sext i32 %34 to i64
  %36 = getelementptr inbounds %struct.ChildContext, ptr %33, i64 %35
  %37 = load ptr, ptr %6, align 8, !tbaa !4
  %38 = load ptr, ptr %15, align 8, !tbaa !23
  %39 = load ptr, ptr %16, align 8, !tbaa !24
  %40 = call i32 @ffurl_open_whitelist(ptr noundef %36, ptr noundef %37, i32 noundef %2, ptr noundef nonnull %14, ptr noundef nonnull %7, ptr noundef %38, ptr noundef %39, ptr noundef %0) #4
  br label %41

41:                                               ; preds = %19, %25, %32
  %.1 = phi i32 [ %30, %25 ], [ %40, %32 ], [ -12, %19 ]
  call void @av_freep(ptr noundef nonnull %5) #4
  call void @av_dict_free(ptr noundef nonnull %7) #4
  %42 = icmp slt i32 %.1, 0
  br i1 %42, label %79, label %43

43:                                               ; preds = %41
  %44 = load i32, ptr %9, align 8, !tbaa !17
  %45 = add nsw i32 %44, 1
  store i32 %45, ptr %9, align 8, !tbaa !17
  %46 = load ptr, ptr %4, align 8, !tbaa !4
  %47 = call i64 @strspn(ptr noundef %46, ptr noundef nonnull @.str.3) #5
  %.not55 = icmp eq i64 %47, 0
  br i1 %.not55, label %50, label %48

48:                                               ; preds = %43
  %49 = getelementptr inbounds nuw i8, ptr %46, i64 1
  store ptr %49, ptr %4, align 8, !tbaa !4
  br label %50

50:                                               ; preds = %43, %48
  %51 = phi ptr [ %46, %43 ], [ %49, %48 ]
  call void @llvm.lifetime.end.p0(i64 8, ptr nonnull %7) #4
  call void @llvm.lifetime.end.p0(i64 8, ptr nonnull %6) #4
  call void @llvm.lifetime.end.p0(i64 8, ptr nonnull %5) #4
  %52 = load i8, ptr %51, align 1, !tbaa !16
  %.not = icmp eq i8 %52, 0
  br i1 %.not, label %._crit_edge, label %17

._crit_edge:                                      ; preds = %50, %.._crit_edge_crit_edge
  %53 = phi i32 [ %.pre, %.._crit_edge_crit_edge ], [ %45, %50 ]
  %54 = getelementptr inbounds nuw i8, ptr %0, i64 40
  store i32 0, ptr %54, align 8, !tbaa !25
  %55 = icmp sgt i32 %53, 0
  br i1 %55, label %.lr.ph64, label %._crit_edge65

.lr.ph64:                                         ; preds = %._crit_edge
  %56 = getelementptr inbounds nuw i8, ptr %9, i64 8
  %57 = load ptr, ptr %56, align 8, !tbaa !22
  %wide.trip.count = zext nneg i32 %53 to i64
  br label %58

58:                                               ; preds = %.lr.ph64, %58
  %indvars.iv = phi i64 [ 0, %.lr.ph64 ], [ %indvars.iv.next, %58 ]
  %59 = phi i32 [ 0, %.lr.ph64 ], [ %64, %58 ]
  %60 = getelementptr inbounds nuw %struct.ChildContext, ptr %57, i64 %indvars.iv
  %61 = load ptr, ptr %60, align 8, !tbaa !26
  %62 = getelementptr inbounds nuw i8, ptr %61, i64 40
  %63 = load i32, ptr %62, align 8, !tbaa !25
  %64 = or i32 %59, %63
  store i32 %64, ptr %54, align 8, !tbaa !25
  %indvars.iv.next = add nuw nsw i64 %indvars.iv, 1
  %exitcond.not = icmp eq i64 %indvars.iv.next, %wide.trip.count
  br i1 %exitcond.not, label %.lr.ph68, label %58, !llvm.loop !29

._crit_edge65:                                    ; preds = %._crit_edge
  %65 = getelementptr inbounds nuw i8, ptr %0, i64 36
  store i32 0, ptr %65, align 4, !tbaa !31
  br label %.loopexit

.lr.ph68:                                         ; preds = %58
  %66 = getelementptr inbounds nuw i8, ptr %0, i64 36
  store i32 0, ptr %66, align 4, !tbaa !31
  %67 = getelementptr inbounds nuw i8, ptr %9, i64 8
  %68 = load ptr, ptr %67, align 8, !tbaa !22
  %wide.trip.count73 = zext nneg i32 %53 to i64
  br label %69

69:                                               ; preds = %.lr.ph68, %77
  %70 = phi i32 [ 0, %.lr.ph68 ], [ %78, %77 ]
  %indvars.iv70 = phi i64 [ 0, %.lr.ph68 ], [ %indvars.iv.next71, %77 ]
  %71 = getelementptr inbounds nuw %struct.ChildContext, ptr %68, i64 %indvars.iv70
  %72 = load ptr, ptr %71, align 8, !tbaa !26
  %73 = getelementptr inbounds nuw i8, ptr %72, i64 36
  %74 = load i32, ptr %73, align 4, !tbaa !31
  %.not51 = icmp eq i32 %74, 0
  br i1 %.not51, label %77, label %75

75:                                               ; preds = %69
  %.not52 = icmp eq i32 %70, 0
  %76 = icmp sgt i32 %70, %74
  %or.cond = or i1 %.not52, %76
  br i1 %or.cond, label %.sink.split, label %77

.sink.split:                                      ; preds = %75
  store i32 %74, ptr %66, align 4, !tbaa !31
  br label %77

77:                                               ; preds = %75, %.sink.split, %69
  %78 = phi i32 [ %70, %69 ], [ %74, %.sink.split ], [ %70, %75 ]
  %indvars.iv.next71 = add nuw nsw i64 %indvars.iv70, 1
  %exitcond74.not = icmp eq i64 %indvars.iv.next71, %wide.trip.count73
  br i1 %exitcond74.not, label %.loopexit, label %69, !llvm.loop !32

79:                                               ; preds = %17, %41
  %.044.ph = phi i32 [ %.1, %41 ], [ -12, %17 ]
  call void @llvm.lifetime.end.p0(i64 8, ptr nonnull %7) #4
  call void @llvm.lifetime.end.p0(i64 8, ptr nonnull %6) #4
  call void @llvm.lifetime.end.p0(i64 8, ptr nonnull %5) #4
  %80 = load ptr, ptr %8, align 8, !tbaa !9
  %81 = load i32, ptr %80, align 8, !tbaa !17
  %82 = icmp sgt i32 %81, 0
  br i1 %82, label %.lr.ph.i, label %tee_close.exit

.lr.ph.i:                                         ; preds = %79
  %83 = getelementptr inbounds nuw i8, ptr %80, i64 8
  br label %84

84:                                               ; preds = %84, %.lr.ph.i
  %indvars.iv.i = phi i64 [ 0, %.lr.ph.i ], [ %indvars.iv.next.i, %84 ]
  %85 = load ptr, ptr %83, align 8, !tbaa !22
  %86 = getelementptr inbounds nuw %struct.ChildContext, ptr %85, i64 %indvars.iv.i
  %87 = call i32 @ffurl_closep(ptr noundef %86) #4
  %indvars.iv.next.i = add nuw nsw i64 %indvars.iv.i, 1
  %88 = load i32, ptr %80, align 8, !tbaa !17
  %89 = sext i32 %88 to i64
  %90 = icmp slt i64 %indvars.iv.next.i, %89
  br i1 %90, label %84, label %tee_close.exit, !llvm.loop !33

tee_close.exit:                                   ; preds = %84, %79
  %91 = getelementptr inbounds nuw i8, ptr %80, i64 8
  call void @av_freep(ptr noundef nonnull %91) #4
  store i32 0, ptr %80, align 8, !tbaa !17
  br label %.loopexit

.loopexit:                                        ; preds = %77, %._crit_edge65, %tee_close.exit
  %.0 = phi i32 [ %.044.ph, %tee_close.exit ], [ 0, %._crit_edge65 ], [ 0, %77 ]
  ret i32 %.0
}